; Function Attrs: mustprogress nofree nounwind willreturn memory(read, inaccessiblemem: none) uwtable
define noundef zeroext i1 @_ZNK3net9IPAddressltERKS0_(ptr noundef nonnull readonly align 8 captures(none) dereferenceable(24) %0, ptr noundef nonnull readonly align 8 captures(none) dereferenceable(24) %1) local_unnamed_addr #6 align 2 {
  %3 = getelementptr inbounds nuw i8, ptr %0, i64 8
  %4 = load ptr, ptr %3, align 8, !tbaa !3
  %5 = load ptr, ptr %0, align 8, !tbaa !9
  %6 = ptrtoint ptr %4 to i64
  %7 = ptrtoint ptr %5 to i64
  %8 = sub i64 %6, %7
  %9 = getelementptr inbounds nuw i8, ptr %1, i64 8
  %10 = load ptr, ptr %9, align 8, !tbaa !3
  %11 = load ptr, ptr %1, align 8, !tbaa !9
  %12 = ptrtoint ptr %10 to i64
  %13 = ptrtoint ptr %11 to i64
  %14 = sub i64 %12, %13
  %.not = icmp eq i64 %8, %14
  br i1 %.not, label %17, label %15

15:                                               ; preds = %2
  %16 = icmp ult i64 %8, %14
  br label %_ZStltIhSaIhEEbRKSt6vectorIT_T0_ES6_.exit

17:                                               ; preds = %2
  %.not.i.i.i.i.i.i = icmp eq ptr %10, %11
  br i1 %.not.i.i.i.i.i.i, label %_ZStltIhSaIhEEbRKSt6vectorIT_T0_ES6_.exit, label %18

18:                                               ; preds = %17
  %19 = tail call noundef i32 @memcmp(ptr noundef %5, ptr noundef %11, i64 noundef %8) #21
  %20 = icmp slt i32 %19, 0
  br label %_ZStltIhSaIhEEbRKSt6vectorIT_T0_ES6_.exit

_ZStltIhSaIhEEbRKSt6vectorIT_T0_ES6_.exit:        ; preds = %18, %17, %15
  %.0 = phi i1 [ %16, %15 ], [ %20, %18 ], [ false, %17 ]
  ret i1 %.0
}